target datalayout = "e-m:e-p270:32:32-p271:32:32-p272:64:64-i64:64-i128:128-f80:128-n8:16:32:64-S128"
target triple = "x86_64-pc-linux-gnu"

%"class.icu_77::CollationKey" = type { %"class.icu_77::UObject", i32, i32, %"union.icu_77::CollationKey::StackBufferOrFields" }
%"class.icu_77::UObject" = type { ptr }
%"union.icu_77::CollationKey::StackBufferOrFields" = type { %struct.anon, [16 x i8] }
%struct.anon = type { ptr, i32 }

; Function Attrs: mustprogress nounwind uwtable
define noundef nonnull align 8 dereferenceable(48) ptr @_ZN6icu_7712CollationKey5resetEv(ptr noundef nonnull align 8 dereferenceable(48) %0) #0 align 2 {
  %2 = alloca ptr, align 8
  store ptr %0, ptr %2, align 8, !tbaa !3
  %3 = load ptr, ptr %2, align 8
  %4 = getelementptr inbounds nuw %"class.icu_77::CollationKey", ptr %3, i32 0, i32 1
  %5 = load i32, ptr %4, align 8, !tbaa !10
  %6 = and i32 %5, -2147483648
  store i32 %6, ptr %4, align 8, !tbaa !10
  %7 = getelementptr inbounds nuw %"class.icu_77::CollationKey", ptr %3, i32 0, i32 2
  store i32 1, ptr %7, align 4, !tbaa !14
  ret ptr %3
}